#include <math.h>
#include <stdio.h>
#include <stdlib.h>
#include <string.h>

int main(){
	int i;
	double n,a=0,b=0,t=0,k=0;
	char s[501], str[501];

	scanf("%lf",&n);
    scanf("%s",s);
	scanf("%s",str);

	for(i=0;s[i];i++){
		a++;
	}
	for(i=0;str[i];i++){
		b++;
	}
	if(a==b){
	 for(i=0;s[i];i++){
		 if((s[i]=='A'||s[i]=='G'||s[i]=='C'||s[i]=='T')&&(str[i]=='A'||str[i]=='G'||str[i]=='C'||str[i]=='T')){
		   if(s[i]==str[i]){
			 t++;
		   }
		 }
		 else{
			 printf("error");
			 k=1;
	         break;	 
		 }
	 }
	if(t/a>n&&k==0){
		printf("yes");
	}
	else if(k==0){
			printf("no");
	}
	}
	else{
		printf("error");
	}


		


	return 0;
}


